(dp0
S'dance'
p1
I6
sS'electric guitar'
p2
I11
sS'keyboard'
p3
I1
sS'spacey'
p4
I3
sS'clarinet'
p5
I1
sS'birds'
p6
I3
sS'male opera'
p7
I4
sS'string'
p8
I1
sS'beat'
p9
I16
sS'piano solo'
p10
I1
sS'jazz'
p11
I8
sS'electro'
p12
I2
sS'operatic'
p13
I4
sS'organ'
p14
I1
sS'acoustic guitar'
p15
I12
sS'opera'
p16
I4
sS'disco'
p17
I5
sS'chorus'
p18
I14
sS'fiddle'
p19
I17
sS'hip hop'
p20
I10
sS'rock'
p21
I11
sS'acoustic'
p22
I12
sS'baroque'
p23
I4
sS'heavy'
p24
I19
sS'classical'
p25
I1
sS'house'
p26
I2
sS'hard'
p27
I1
sS'monks'
p28
I7
sS'horn'
p29
I21
sS'blues'
p30
I8
sS'folk'
p31
I20
sS'harp'
p32
I1
sS'bongos'
p33
I15
sS'choir'
p34
I14
sS'choral'
p35
I14
sS'space'
p36
I4
sS'electronica'
p37
I2
sS'orchestra'
p38
I1
sS'indian'
p39
I9
sS'oriental'
p40
I9
sS'heavy metal'
p41
I19
sS'medieval'
p42
I4
sS'middle eastern'
p43
I9
sS'water'
p44
I3
sS'jazzy'
p45
I8
sS'techno'
p46
I2
sS'chanting'
p47
I7
sS'violins'
p48
I1
sS'punk'
p49
I11
sS'funky'
p50
I5
sS'classical guitar'
p51
I12
sS'pop'
p52
I6
sS'echo'
p53
I3
sS'harpsicord'
p54
I1
sS'hard rock'
p55
I11
sS'electronic'
p56
I2
sS'percussion'
p57
I16
sS'synthesizer'
p58
I5
sS'harpsichord'
p59
I1
sS'woodwind'
p60
I1
sS'synth'
p61
I5
sS'calm'
p62
I3
sS'eastern'
p63
I9
sS'orchestral'
p64
I1
sS'soft rock'
p65
I11
sS'soprano'
p66
I4
sS'funk'
p67
I5
sS'tribal'
p68
I15
sS'cello'
p69
I1
sS'chant'
p70
I7
sS'duet'
p71
I0
sS'country'
p72
I17
sS'irish'
p73
I13
sS'classic'
p74
I1
sS'horns'
p75
I21
sS'modern'
p76
I18
sS'india'
p77
I9
sS'banjo'
p78
I17
sS'sitar'
p79
I9
sS'beats'
p80
I16
sS'sax'
p81
I8
sS'rap'
p82
I10
sS'ambient'
p83
I3
sS'violin'
p84
I1
sS'arabic'
p85
I9
sS'trumpet'
p86
I21
sS'eerie'
p87
I3
sS'trance'
p88
I3
sS'new age'
p89
I18
sS'viola'
p90
I1
sS'flutes'
p91
I1
sS'reggae'
p92
I15
sS'electric'
p93
I2
sS'flute'
p94
I1
sS'lute'
p95
I20
sS'celtic'
p96
I13
sS'metal'
p97
I19
sS'drone'
p98
I3
sS'jungle'
p99
I15
sS'strings'
p100
I1
s.